; Function Attrs: mustprogress nounwind uwtable
define hidden void @_ZNK6Method19print_external_nameEP12outputStream(ptr nocapture noundef nonnull readonly align 8 dereferenceable(88) %0, ptr noundef %1) local_unnamed_addr #0 align 2 {
  %3 = getelementptr inbounds i8, ptr %0, i64 8
  %4 = load ptr, ptr %3, align 8
  %5 = getelementptr inbounds i8, ptr %4, i64 8
  %6 = load ptr, ptr %5, align 8
  %7 = getelementptr inbounds i8, ptr %6, i64 24
  %8 = load ptr, ptr %7, align 8
  %9 = getelementptr inbounds i8, ptr %4, i64 36
  %10 = load i16, ptr %9, align 4
  %11 = getelementptr inbounds i8, ptr %6, i64 72
  %12 = zext i16 %10 to i64
  %13 = getelementptr inbounds i64, ptr %11, i64 %12
  %14 = load ptr, ptr %13, align 8
  %15 = getelementptr inbounds i8, ptr %4, i64 38
  %16 = load i16, ptr %15, align 2
  %17 = zext i16 %16 to i64
  %18 = getelementptr inbounds i64, ptr %11, i64 %17
  %19 = load ptr, ptr %18, align 8
  tail call void @_ZN6Symbol39print_as_signature_external_return_typeEP12outputStream(ptr noundef nonnull align 4 dereferenceable(8) %19, ptr noundef %1) #23
  %20 = tail call noundef ptr @_ZNK5Klass13external_nameEv(ptr noundef nonnull align 8 dereferenceable(196) %8) #23
  %21 = tail call noundef ptr @_ZNK6Symbol11as_C_stringEv(ptr noundef nonnull align 4 dereferenceable(8) %14) #23
  tail call void (ptr, ptr, ...) @_ZN12outputStream5printEPKcz(ptr noundef nonnull align 8 dereferenceable(56) %1, ptr noundef nonnull @.str, ptr noundef %20, ptr noundef %21) #23
  tail call void @_ZN6Symbol38print_as_signature_external_parametersEP12outputStream(ptr noundef nonnull align 4 dereferenceable(8) %19, ptr noundef nonnull %1) #23
  tail call void (ptr, ptr, ...) @_ZN12outputStream5printEPKcz(ptr noundef nonnull align 8 dereferenceable(56) %1, ptr noundef nonnull @.str.4) #23
  ret void
}